; Function Attrs: mustprogress nofree norecurse nosync nounwind willreturn memory(argmem: write) uwtable
define void @_Z20grpc_stream_ref_initP20grpc_stream_refcountiPFvPvN4absl12lts_202308026StatusEES1_(ptr nocapture noundef writeonly %refcount, i32 noundef %0, ptr noundef %cb, ptr noundef %cb_arg) local_unnamed_addr #6 {
entry:
  %cb1.i = getelementptr inbounds i8, ptr %refcount, i64 16
  store ptr %cb, ptr %cb1.i, align 8
  %cb_arg2.i = getelementptr inbounds i8, ptr %refcount, i64 24
  store ptr %cb_arg, ptr %cb_arg2.i, align 8
  %error_data.i = getelementptr inbounds i8, ptr %refcount, i64 32
  store i64 0, ptr %error_data.i, align 8
  store i64 1, ptr %refcount, align 8
  ret void
}